target datalayout = "e-m:e-p270:32:32-p271:32:32-p272:64:64-i64:64-i128:128-f80:128-n8:16:32:64-S128"
target triple = "x86_64-unknown-linux-gnu"

%"class.sat::literal" = type { i32 }
%"class.smt::clause" = type { i32, i32, [0 x %"class.sat::literal"] }

@.str = private unnamed_addr constant [8 x i8] c"(clause\00", align 1
@.str.6 = private unnamed_addr constant [2 x i8] c" \00", align 1
@.str.7 = private unnamed_addr constant [2 x i8] c")\00", align 1

; Function Attrs: mustprogress uwtable
define hidden noundef nonnull align 8 dereferenceable(8) ptr @_ZNK3smt6clause7displayERSoR11ast_managerPKP4expr(ptr noundef nonnull align 4 dereferenceable(8) %this, ptr noundef nonnull align 8 dereferenceable(8) %out, ptr noundef nonnull align 8 dereferenceable(976) %m, ptr noundef %bool_var2expr_map) #5 align 2 {
entry:
  %this.addr = alloca ptr, align 8
  %out.addr = alloca ptr, align 8
  %m.addr = alloca ptr, align 8
  %bool_var2expr_map.addr = alloca ptr, align 8
  %i = alloca i32, align 4
  %agg.tmp = alloca %"class.sat::literal", align 4
  store ptr %this, ptr %this.addr, align 8
  store ptr %out, ptr %out.addr, align 8
  store ptr %m, ptr %m.addr, align 8
  store ptr %bool_var2expr_map, ptr %bool_var2expr_map.addr, align 8
  %this1 = load ptr, ptr %this.addr, align 8
  %0 = load ptr, ptr %out.addr, align 8
  %call = call noundef nonnull align 8 dereferenceable(8) ptr @_ZStlsISt11char_traitsIcEERSt13basic_ostreamIcT_ES5_PKc(ptr noundef nonnull align 8 dereferenceable(8) %0, ptr noundef @.str)
  store i32 0, ptr %i, align 4
  br label %for.cond

for.cond:                                         ; preds = %for.inc, %entry
  %1 = load i32, ptr %i, align 4
  %m_num_literals = getelementptr inbounds %"class.smt::clause", ptr %this1, i32 0, i32 0
  %2 = load i32, ptr %m_num_literals, align 4
  %cmp = icmp ult i32 %1, %2
  br i1 %cmp, label %for.body, label %for.end

for.body:                                         ; preds = %for.cond
  %3 = load ptr, ptr %out.addr, align 8
  %call2 = call noundef nonnull align 8 dereferenceable(8) ptr @_ZStlsISt11char_traitsIcEERSt13basic_ostreamIcT_ES5_PKc(ptr noundef nonnull align 8 dereferenceable(8) %3, ptr noundef @.str.6)
  %4 = load ptr, ptr %out.addr, align 8
  %m_lits = getelementptr inbounds %"class.smt::clause", ptr %this1, i32 0, i32 2
  %5 = load i32, ptr %i, align 4
  %idxprom = zext i32 %5 to i64
  %arrayidx = getelementptr inbounds [0 x %"class.sat::literal"], ptr %m_lits, i64 0, i64 %idxprom
  call void @llvm.memcpy.p0.p0.i64(ptr align 4 %agg.tmp, ptr align 4 %arrayidx, i64 4, i1 false)
  %6 = load ptr, ptr %m.addr, align 8
  %7 = load ptr, ptr %bool_var2expr_map.addr, align 8
  %coerce.dive = getelementptr inbounds %"class.sat::literal", ptr %agg.tmp, i32 0, i32 0
  %8 = load i32, ptr %coerce.dive, align 4
  %call3 = call noundef nonnull align 8 dereferenceable(8) ptr @_ZN3smt7displayERSoN3sat7literalER11ast_managerPKP4expr(ptr noundef nonnull align 8 dereferenceable(8) %4, i32 %8, ptr noundef nonnull align 8 dereferenceable(976) %6, ptr noundef %7)
  br label %for.inc

for.inc:                                          ; preds = %for.body
  %9 = load i32, ptr %i, align 4
  %inc = add i32 %9, 1
  store i32 %inc, ptr %i, align 4
  br label %for.cond, !llvm.loop !8

for.end:                                          ; preds = %for.cond
  %10 = load ptr, ptr %out.addr, align 8
  %call4 = call noundef nonnull align 8 dereferenceable(8) ptr @_ZStlsISt11char_traitsIcEERSt13basic_ostreamIcT_ES5_PKc(ptr noundef nonnull align 8 dereferenceable(8) %10, ptr noundef @.str.7)
  ret ptr %call4
}