; Function Attrs: mustprogress uwtable
define hidden noundef nonnull align 8 dereferenceable(8) ptr @_ZNK3smt6clause7displayERSoR11ast_managerPKP4expr(ptr nocapture noundef nonnull readonly align 4 dereferenceable(8) %this, ptr noundef nonnull align 8 dereferenceable(8) %out, ptr noundef nonnull align 8 dereferenceable(976) %m, ptr noundef %bool_var2expr_map) local_unnamed_addr #3 align 2 {
entry:
  %call = tail call noundef nonnull align 8 dereferenceable(8) ptr @_ZStlsISt11char_traitsIcEERSt13basic_ostreamIcT_ES5_PKc(ptr noundef nonnull align 8 dereferenceable(8) %out, ptr noundef nonnull @.str)
  %0 = load i32, ptr %this, align 4
  %cmp6.not = icmp eq i32 %0, 0
  br i1 %cmp6.not, label %for.end, label %for.body.lr.ph

for.body.lr.ph:                                   ; preds = %entry
  %m_lits = getelementptr inbounds i8, ptr %this, i64 8
  br label %for.body

for.body:                                         ; preds = %for.body.lr.ph, %for.body
  %indvars.iv = phi i64 [ 0, %for.body.lr.ph ], [ %indvars.iv.next, %for.body ]
  %call2 = tail call noundef nonnull align 8 dereferenceable(8) ptr @_ZStlsISt11char_traitsIcEERSt13basic_ostreamIcT_ES5_PKc(ptr noundef nonnull align 8 dereferenceable(8) %out, ptr noundef nonnull @.str.6)
  %arrayidx = getelementptr inbounds [0 x %"class.sat::literal"], ptr %m_lits, i64 0, i64 %indvars.iv
  %agg.tmp.sroa.0.0.copyload = load i32, ptr %arrayidx, align 4
  %call3 = tail call noundef nonnull align 8 dereferenceable(8) ptr @_ZN3smt7displayERSoN3sat7literalER11ast_managerPKP4expr(ptr noundef nonnull align 8 dereferenceable(8) %out, i32 %agg.tmp.sroa.0.0.copyload, ptr noundef nonnull align 8 dereferenceable(976) %m, ptr noundef %bool_var2expr_map)
  %indvars.iv.next = add nuw nsw i64 %indvars.iv, 1
  %1 = load i32, ptr %this, align 4
  %2 = zext i32 %1 to i64
  %cmp = icmp ult i64 %indvars.iv.next, %2
  br i1 %cmp, label %for.body, label %for.end, !llvm.loop !8

for.end:                                          ; preds = %for.body, %entry
  %call4 = tail call noundef nonnull align 8 dereferenceable(8) ptr @_ZStlsISt11char_traitsIcEERSt13basic_ostreamIcT_ES5_PKc(ptr noundef nonnull align 8 dereferenceable(8) %out, ptr noundef nonnull @.str.7)
  ret ptr %call4
}